target datalayout = "e-m:e-p270:32:32-p271:32:32-p272:64:64-i64:64-i128:128-f80:128-n8:16:32:64-S128"
target triple = "x86_64-pc-linux-gnu"

@_ZN11ZGeneration6_youngE = external global ptr, align 8
@_ZN11ZGeneration4_oldE = external global ptr, align 8

; Function Attrs: mustprogress nounwind uwtable
define linkonce_odr hidden noundef ptr @_ZN11ZGeneration3oldEv() #1 comdat align 2 {
  %1 = load ptr, ptr @_ZN11ZGeneration4_oldE, align 8
  ret ptr %1
}

; Function Attrs: mustprogress nounwind uwtable
define linkonce_odr hidden noundef ptr @_ZN11ZGeneration5youngEv() #1 comdat align 2 {
  %1 = load ptr, ptr @_ZN11ZGeneration6_youngE, align 8
  ret ptr %1
}

; Function Attrs: mustprogress nounwind uwtable
define hidden void @_ZN14ZCollectedHeap27safepoint_synchronize_beginEv(ptr noundef nonnull align 64 dereferenceable(16344) %0) unnamed_addr #1 align 2 {
  %2 = alloca ptr, align 8
  store ptr %0, ptr %2, align 8
  call void @_ZN17StackWatermarkSet27safepoint_synchronize_beginEv()
  %3 = call noundef ptr @_ZN11ZGeneration5youngEv()
  call void @_ZN11ZGeneration22synchronize_relocationEv(ptr noundef nonnull align 64 dereferenceable(6592) %3)
  %4 = call noundef ptr @_ZN11ZGeneration3oldEv()
  call void @_ZN11ZGeneration22synchronize_relocationEv(ptr noundef nonnull align 64 dereferenceable(6592) %4)
  call void @_ZN20SuspendibleThreadSet11synchronizeEv()
  ret void
}