; Function Attrs: mustprogress nounwind uwtable
define hidden void @_ZN14ZCollectedHeap27safepoint_synchronize_beginEv(ptr nocapture nonnull readnone align 64 %0) unnamed_addr #1 align 2 {
  tail call void @_ZN17StackWatermarkSet27safepoint_synchronize_beginEv() #12
  %2 = load ptr, ptr @_ZN11ZGeneration6_youngE, align 8
  tail call void @_ZN11ZGeneration22synchronize_relocationEv(ptr noundef nonnull align 64 dereferenceable(6592) %2) #12
  %3 = load ptr, ptr @_ZN11ZGeneration4_oldE, align 8
  tail call void @_ZN11ZGeneration22synchronize_relocationEv(ptr noundef nonnull align 64 dereferenceable(6592) %3) #12
  tail call void @_ZN20SuspendibleThreadSet11synchronizeEv() #12
  ret void
}